target datalayout = "e-m:e-p270:32:32-p271:32:32-p272:64:64-i64:64-i128:128-f80:128-n8:16:32:64-S128"
target triple = "x86_64-unknown-linux-gnu"

%"class.facebook::velox::common::Tokenizer" = type { %"class.std::__cxx11::basic_string", %"class.std::shared_ptr", i32, i32, i8, %"class.std::unique_ptr" }
%"class.std::__cxx11::basic_string" = type { %"struct.std::__cxx11::basic_string<char>::_Alloc_hider", i64, %union.anon }
%"struct.std::__cxx11::basic_string<char>::_Alloc_hider" = type { ptr }
%union.anon = type { i64, [8 x i8] }
%"class.std::shared_ptr" = type { %"class.std::__shared_ptr" }
%"class.std::__shared_ptr" = type { ptr, %"class.std::__shared_count" }
%"class.std::__shared_count" = type { ptr }
%"class.std::unique_ptr" = type { %"struct.std::__uniq_ptr_data" }
%"struct.std::__uniq_ptr_data" = type { %"class.std::__uniq_ptr_impl" }
%"class.std::__uniq_ptr_impl" = type { %"class.std::tuple" }
%"class.std::tuple" = type { %"struct.std::_Tuple_impl" }
%"struct.std::_Tuple_impl" = type { %"struct.std::_Head_base.1" }
%"struct.std::_Head_base.1" = type { ptr }
%"struct.facebook::velox::common::Separators" = type { i8, i8, i8, i8, i8, i8, i8 }

; Function Attrs: mustprogress nounwind uwtable
define linkonce_odr noundef ptr @_ZNKSt12__shared_ptrIN8facebook5velox6common10SeparatorsELN9__gnu_cxx12_Lock_policyE2EE3getEv(ptr noundef nonnull align 8 dereferenceable(16) %this) #2 comdat align 2 {
entry:
  %this.addr = alloca ptr, align 8
  store ptr %this, ptr %this.addr, align 8
  %this1 = load ptr, ptr %this.addr, align 8
  %_M_ptr = getelementptr inbounds %"class.std::__shared_ptr", ptr %this1, i32 0, i32 0
  %0 = load ptr, ptr %_M_ptr, align 8
  ret ptr %0
}

; Function Attrs: mustprogress nounwind uwtable
define noundef signext i8 @_ZN8facebook5velox6common9Tokenizer13peekCharacterEv(ptr noundef nonnull align 8 dereferenceable(72) %this) #2 align 2 {
entry:
  %this.addr = alloca ptr, align 8
  store ptr %this, ptr %this.addr, align 8
  %this1 = load ptr, ptr %this.addr, align 8
  %path_ = getelementptr inbounds %"class.facebook::velox::common::Tokenizer", ptr %this1, i32 0, i32 0
  %index_ = getelementptr inbounds %"class.facebook::velox::common::Tokenizer", ptr %this1, i32 0, i32 2
  %0 = load i32, ptr %index_, align 8
  %conv = sext i32 %0 to i64
  %call = call noundef nonnull align 1 dereferenceable(1) ptr @_ZNKSt7__cxx1112basic_stringIcSt11char_traitsIcESaIcEEixEm(ptr noundef nonnull align 8 dereferenceable(32) %path_, i64 noundef %conv) #13
  %1 = load i8, ptr %call, align 1
  ret i8 %1
}

; Function Attrs: mustprogress nounwind uwtable
define noundef zeroext i1 @_ZN8facebook5velox6common9Tokenizer16hasNextCharacterEv(ptr noundef nonnull align 8 dereferenceable(72) %this) #2 align 2 {
entry:
  %this.addr = alloca ptr, align 8
  store ptr %this, ptr %this.addr, align 8
  %this1 = load ptr, ptr %this.addr, align 8
  %index_ = getelementptr inbounds %"class.facebook::velox::common::Tokenizer", ptr %this1, i32 0, i32 2
  %0 = load i32, ptr %index_, align 8
  %conv = sext i32 %0 to i64
  %path_ = getelementptr inbounds %"class.facebook::velox::common::Tokenizer", ptr %this1, i32 0, i32 0
  %call = call noundef i64 @_ZNKSt7__cxx1112basic_stringIcSt11char_traitsIcESaIcEE6lengthEv(ptr noundef nonnull align 8 dereferenceable(32) %path_) #13
  %cmp = icmp ult i64 %conv, %call
  ret i1 %cmp
}

; Function Attrs: mustprogress nounwind uwtable
define linkonce_odr noundef ptr @_ZNKSt19__shared_ptr_accessIN8facebook5velox6common10SeparatorsELN9__gnu_cxx12_Lock_policyE2ELb0ELb0EE6_M_getEv(ptr noundef nonnull align 1 dereferenceable(1) %this) #2 comdat align 2 {
entry:
  %this.addr = alloca ptr, align 8
  store ptr %this, ptr %this.addr, align 8
  %this1 = load ptr, ptr %this.addr, align 8
  %call = call noundef ptr @_ZNKSt12__shared_ptrIN8facebook5velox6common10SeparatorsELN9__gnu_cxx12_Lock_policyE2EE3getEv(ptr noundef nonnull align 8 dereferenceable(16) %this1) #13
  ret ptr %call
}

; Function Attrs: mustprogress uwtable
define noundef zeroext i1 @_ZN8facebook5velox6common9Tokenizer8tryMatchEc(ptr noundef nonnull align 8 dereferenceable(72) %this, i8 noundef signext %expected) #0 align 2 {
entry:
  %retval = alloca i1, align 1
  %this.addr = alloca ptr, align 8
  %expected.addr = alloca i8, align 1
  store ptr %this, ptr %this.addr, align 8
  store i8 %expected, ptr %expected.addr, align 1
  %this1 = load ptr, ptr %this.addr, align 8
  %call = call noundef zeroext i1 @_ZN8facebook5velox6common9Tokenizer16hasNextCharacterEv(ptr noundef nonnull align 8 dereferenceable(72) %this1)
  br i1 %call, label %lor.lhs.false, label %if.then

lor.lhs.false:                                    ; preds = %entry
  %call2 = call noundef signext i8 @_ZN8facebook5velox6common9Tokenizer13peekCharacterEv(ptr noundef nonnull align 8 dereferenceable(72) %this1)
  %conv = sext i8 %call2 to i32
  %0 = load i8, ptr %expected.addr, align 1
  %conv3 = sext i8 %0 to i32
  %cmp = icmp ne i32 %conv, %conv3
  br i1 %cmp, label %if.then, label %if.end

if.then:                                          ; preds = %lor.lhs.false, %entry
  store i1 false, ptr %retval, align 1
  br label %return

if.end:                                           ; preds = %lor.lhs.false
  %index_ = getelementptr inbounds %"class.facebook::velox::common::Tokenizer", ptr %this1, i32 0, i32 2
  %1 = load i32, ptr %index_, align 8
  %inc = add nsw i32 %1, 1
  store i32 %inc, ptr %index_, align 8
  store i1 true, ptr %retval, align 1
  br label %return

return:                                           ; preds = %if.end, %if.then
  %2 = load i1, ptr %retval, align 1
  ret i1 %2
}

; Function Attrs: mustprogress nounwind uwtable
define linkonce_odr noundef zeroext i1 @_ZNK8facebook5velox6common10Separators11isSeparatorEc(ptr noundef nonnull align 1 dereferenceable(7) %this, i8 noundef signext %c) #2 comdat align 2 {
entry:
  %this.addr = alloca ptr, align 8
  %c.addr = alloca i8, align 1
  store ptr %this, ptr %this.addr, align 8
  store i8 %c, ptr %c.addr, align 1
  %this1 = load ptr, ptr %this.addr, align 8
  %0 = load i8, ptr %c.addr, align 1
  %conv = sext i8 %0 to i32
  %closeBracket = getelementptr inbounds %"struct.facebook::velox::common::Separators", ptr %this1, i32 0, i32 1
  %1 = load i8, ptr %closeBracket, align 1
  %conv2 = sext i8 %1 to i32
  %cmp = icmp eq i32 %conv, %conv2
  br i1 %cmp, label %lor.end, label %lor.lhs.false

lor.lhs.false:                                    ; preds = %entry
  %2 = load i8, ptr %c.addr, align 1
  %conv3 = sext i8 %2 to i32
  %dot = getelementptr inbounds %"struct.facebook::velox::common::Separators", ptr %this1, i32 0, i32 2
  %3 = load i8, ptr %dot, align 1
  %conv4 = sext i8 %3 to i32
  %cmp5 = icmp eq i32 %conv3, %conv4
  br i1 %cmp5, label %lor.end, label %lor.lhs.false6

lor.lhs.false6:                                   ; preds = %lor.lhs.false
  %4 = load i8, ptr %c.addr, align 1
  %conv7 = sext i8 %4 to i32
  %openBracket = getelementptr inbounds %"struct.facebook::velox::common::Separators", ptr %this1, i32 0, i32 3
  %5 = load i8, ptr %openBracket, align 1
  %conv8 = sext i8 %5 to i32
  %cmp9 = icmp eq i32 %conv7, %conv8
  br i1 %cmp9, label %lor.end, label %lor.lhs.false10

lor.lhs.false10:                                  ; preds = %lor.lhs.false6
  %6 = load i8, ptr %c.addr, align 1
  %conv11 = sext i8 %6 to i32
  %quote = getelementptr inbounds %"struct.facebook::velox::common::Separators", ptr %this1, i32 0, i32 4
  %7 = load i8, ptr %quote, align 1
  %conv12 = sext i8 %7 to i32
  %cmp13 = icmp eq i32 %conv11, %conv12
  br i1 %cmp13, label %lor.end, label %lor.rhs

lor.rhs:                                          ; preds = %lor.lhs.false10
  %8 = load i8, ptr %c.addr, align 1
  %conv14 = sext i8 %8 to i32
  %wildCard = getelementptr inbounds %"struct.facebook::velox::common::Separators", ptr %this1, i32 0, i32 5
  %9 = load i8, ptr %wildCard, align 1
  %conv15 = sext i8 %9 to i32
  %cmp16 = icmp eq i32 %conv14, %conv15
  br label %lor.end

lor.end:                                          ; preds = %lor.rhs, %lor.lhs.false10, %lor.lhs.false6, %lor.lhs.false, %entry
  %10 = phi i1 [ true, %lor.lhs.false10 ], [ true, %lor.lhs.false6 ], [ true, %lor.lhs.false ], [ true, %entry ], [ %cmp16, %lor.rhs ]
  ret i1 %10
}

; Function Attrs: mustprogress nounwind uwtable
define linkonce_odr noundef ptr @_ZNKSt19__shared_ptr_accessIN8facebook5velox6common10SeparatorsELN9__gnu_cxx12_Lock_policyE2ELb0ELb0EEptEv(ptr noundef nonnull align 1 dereferenceable(1) %this) #2 comdat align 2 {
entry:
  %this.addr = alloca ptr, align 8
  store ptr %this, ptr %this.addr, align 8
  %this1 = load ptr, ptr %this.addr, align 8
  %call = call noundef ptr @_ZNKSt19__shared_ptr_accessIN8facebook5velox6common10SeparatorsELN9__gnu_cxx12_Lock_policyE2ELb0ELb0EE6_M_getEv(ptr noundef nonnull align 1 dereferenceable(1) %this1) #13
  ret ptr %call
}

; Function Attrs: mustprogress uwtable
define noundef zeroext i1 @_ZN8facebook5velox6common9Tokenizer17tryMatchSeparatorEc(ptr noundef nonnull align 8 dereferenceable(72) %this, i8 noundef signext %expected) #0 align 2 {
entry:
  %this.addr = alloca ptr, align 8
  %expected.addr = alloca i8, align 1
  store ptr %this, ptr %this.addr, align 8
  store i8 %expected, ptr %expected.addr, align 1
  %this1 = load ptr, ptr %this.addr, align 8
  %separators_ = getelementptr inbounds %"class.facebook::velox::common::Tokenizer", ptr %this1, i32 0, i32 1
  %call = call noundef ptr @_ZNKSt19__shared_ptr_accessIN8facebook5velox6common10SeparatorsELN9__gnu_cxx12_Lock_policyE2ELb0ELb0EEptEv(ptr noundef nonnull align 1 dereferenceable(1) %separators_) #13
  %0 = load i8, ptr %expected.addr, align 1
  %call2 = call noundef zeroext i1 @_ZNK8facebook5velox6common10Separators11isSeparatorEc(ptr noundef nonnull align 1 dereferenceable(7) %call, i8 noundef signext %0)
  br i1 %call2, label %land.rhs, label %land.end

land.rhs:                                         ; preds = %entry
  %1 = load i8, ptr %expected.addr, align 1
  %call3 = call noundef zeroext i1 @_ZN8facebook5velox6common9Tokenizer8tryMatchEc(ptr noundef nonnull align 8 dereferenceable(72) %this1, i8 noundef signext %1)
  br label %land.end

land.end:                                         ; preds = %land.rhs, %entry
  %2 = phi i1 [ false, %entry ], [ %call3, %land.rhs ]
  ret i1 %2
}