; Function Attrs: mustprogress nounwind uwtable
define noundef zeroext i1 @_ZN8facebook5velox6common9Tokenizer17tryMatchSeparatorEc(ptr noundef nonnull align 8 dereferenceable(72) %this, i8 noundef signext %expected) local_unnamed_addr #3 align 2 {
entry:
  %separators_ = getelementptr inbounds i8, ptr %this, i64 32
  %0 = load ptr, ptr %separators_, align 8
  %closeBracket.i = getelementptr inbounds i8, ptr %0, i64 1
  %1 = load <4 x i8>, ptr %closeBracket.i, align 1
  %2 = insertelement <4 x i8> poison, i8 %expected, i64 0
  %3 = shufflevector <4 x i8> %2, <4 x i8> poison, <4 x i32> zeroinitializer
  %4 = icmp eq <4 x i8> %1, %3
  %5 = freeze <4 x i1> %4
  %6 = bitcast <4 x i1> %5 to i4
  %.not = icmp eq i4 %6, 0
  br i1 %.not, label %_ZNK8facebook5velox6common10Separators11isSeparatorEc.exit, label %land.rhs

_ZNK8facebook5velox6common10Separators11isSeparatorEc.exit: ; preds = %entry
  %wildCard.i = getelementptr inbounds i8, ptr %0, i64 5
  %7 = load i8, ptr %wildCard.i, align 1
  %cmp16.i = icmp eq i8 %7, %expected
  br i1 %cmp16.i, label %land.rhs, label %land.end

land.rhs:                                         ; preds = %entry, %_ZNK8facebook5velox6common10Separators11isSeparatorEc.exit
  %index_.i.i = getelementptr inbounds i8, ptr %this, i64 48
  %8 = load i32, ptr %index_.i.i, align 8
  %conv.i.i = sext i32 %8 to i64
  %call.i.i = tail call noundef i64 @_ZNKSt7__cxx1112basic_stringIcSt11char_traitsIcESaIcEE6lengthEv(ptr noundef nonnull align 8 dereferenceable(32) %this) #20
  %cmp.i.i = icmp ugt i64 %call.i.i, %conv.i.i
  br i1 %cmp.i.i, label %lor.lhs.false.i, label %land.end

lor.lhs.false.i:                                  ; preds = %land.rhs
  %9 = load i32, ptr %index_.i.i, align 8
  %conv.i2.i = sext i32 %9 to i64
  %call.i3.i = tail call noundef nonnull align 1 dereferenceable(1) ptr @_ZNKSt7__cxx1112basic_stringIcSt11char_traitsIcESaIcEEixEm(ptr noundef nonnull align 8 dereferenceable(32) %this, i64 noundef %conv.i2.i) #20
  %10 = load i8, ptr %call.i3.i, align 1
  %cmp.not.i = icmp eq i8 %10, %expected
  br i1 %cmp.not.i, label %if.end.i, label %land.end

if.end.i:                                         ; preds = %lor.lhs.false.i
  %11 = load i32, ptr %index_.i.i, align 8
  %inc.i = add nsw i32 %11, 1
  store i32 %inc.i, ptr %index_.i.i, align 8
  br label %land.end

land.end:                                         ; preds = %if.end.i, %lor.lhs.false.i, %land.rhs, %_ZNK8facebook5velox6common10Separators11isSeparatorEc.exit
  %12 = phi i1 [ false, %_ZNK8facebook5velox6common10Separators11isSeparatorEc.exit ], [ true, %if.end.i ], [ false, %lor.lhs.false.i ], [ false, %land.rhs ]
  ret i1 %12
}